target datalayout = "e-m:e-p270:32:32-p271:32:32-p272:64:64-i64:64-i128:128-f80:128-n8:16:32:64-S128"
target triple = "x86_64-pc-linux-gnu"

%"class.std::__1::unique_ptr" = type { %"class.std::__1::__compressed_pair" }
%"class.std::__1::__compressed_pair" = type { %"struct.std::__1::__compressed_pair_elem" }
%"struct.std::__1::__compressed_pair_elem" = type { ptr }
%"struct.drjit::divisor" = type <{ i64, i64, i8 }>
%"class.std::__1::unique_ptr.2" = type { %"class.std::__1::__compressed_pair.3" }
%"class.std::__1::__compressed_pair.3" = type { %"struct.std::__1::__compressed_pair_elem.4" }
%"struct.std::__1::__compressed_pair_elem.4" = type { ptr }
%"class.std::__1::unique_ptr.8" = type { %"class.std::__1::__compressed_pair.9" }
%"class.std::__1::__compressed_pair.9" = type { %"struct.std::__1::__compressed_pair_elem.10" }
%"struct.std::__1::__compressed_pair_elem.10" = type { ptr }
%"class.mitsuba::RadicalInverse" = type <{ %"class.mitsuba::Object.base", [4 x i8], i64, %"class.std::__1::unique_ptr", %"class.std::__1::unique_ptr.2", %"class.std::__1::unique_ptr.8", %"class.std::__1::unique_ptr.2", %"class.std::__1::unique_ptr.8", i32, [4 x i8] }>
%"class.mitsuba::Object.base" = type <{ ptr, %"struct.std::__1::atomic" }>
%"struct.std::__1::atomic" = type { %"struct.std::__1::__atomic_base" }
%"struct.std::__1::__atomic_base" = type { %"struct.std::__1::__atomic_base.0" }
%"struct.std::__1::__atomic_base.0" = type { %"struct.std::__1::__cxx_atomic_impl" }
%"struct.std::__1::__cxx_atomic_impl" = type { %"struct.std::__1::__cxx_atomic_base_impl" }
%"struct.std::__1::__cxx_atomic_base_impl" = type { i32 }
%"struct.mitsuba::RadicalInverse::PrimeBase" = type <{ %"struct.drjit::divisor", i16, float }>

; Function Attrs: mustprogress nounwind uwtable
define linkonce_odr hidden noundef nonnull align 8 dereferenceable(8) ptr @_ZNKSt3__122__compressed_pair_elemIPN7mitsuba14RadicalInverse9PrimeBaseELi0ELb0EE5__getB8ne190000Ev(ptr noundef nonnull align 8 dereferenceable(8) %0) #1 comdat align 2 {
  %2 = alloca ptr, align 8
  store ptr %0, ptr %2, align 8
  %3 = load ptr, ptr %2, align 8
  %4 = getelementptr inbounds %"struct.std::__1::__compressed_pair_elem", ptr %3, i32 0, i32 0
  ret ptr %4
}

; Function Attrs: mustprogress nounwind uwtable
define linkonce_odr hidden noundef nonnull align 8 dereferenceable(8) ptr @_ZNKSt3__122__compressed_pair_elemIPPtLi0ELb0EE5__getB8ne190000Ev(ptr noundef nonnull align 8 dereferenceable(8) %0) #1 comdat align 2 {
  %2 = alloca ptr, align 8
  store ptr %0, ptr %2, align 8
  %3 = load ptr, ptr %2, align 8
  %4 = getelementptr inbounds %"struct.std::__1::__compressed_pair_elem.10", ptr %3, i32 0, i32 0
  ret ptr %4
}

; Function Attrs: mustprogress nounwind uwtable
define linkonce_odr hidden noundef nonnull align 8 dereferenceable(8) ptr @_ZNKSt3__117__compressed_pairIPN7mitsuba14RadicalInverse9PrimeBaseENS_14default_deleteIA_S3_EEE5firstB8ne190000Ev(ptr noundef nonnull align 8 dereferenceable(8) %0) #1 comdat align 2 {
  %2 = alloca ptr, align 8
  store ptr %0, ptr %2, align 8
  %3 = load ptr, ptr %2, align 8
  %4 = call noundef nonnull align 8 dereferenceable(8) ptr @_ZNKSt3__122__compressed_pair_elemIPN7mitsuba14RadicalInverse9PrimeBaseELi0ELb0EE5__getB8ne190000Ev(ptr noundef nonnull align 8 dereferenceable(8) %3) #16
  ret ptr %4
}

; Function Attrs: mustprogress nounwind uwtable
define linkonce_odr hidden noundef nonnull align 8 dereferenceable(8) ptr @_ZNKSt3__117__compressed_pairIPPtNS_14default_deleteIA_S1_EEE5firstB8ne190000Ev(ptr noundef nonnull align 8 dereferenceable(8) %0) #1 comdat align 2 {
  %2 = alloca ptr, align 8
  store ptr %0, ptr %2, align 8
  %3 = load ptr, ptr %2, align 8
  %4 = call noundef nonnull align 8 dereferenceable(8) ptr @_ZNKSt3__122__compressed_pair_elemIPPtLi0ELb0EE5__getB8ne190000Ev(ptr noundef nonnull align 8 dereferenceable(8) %3) #16
  ret ptr %4
}

; Function Attrs: mustprogress nounwind uwtable
define linkonce_odr hidden noundef nonnull align 1 dereferenceable(23) ptr @_ZNKSt3__110unique_ptrIA_N7mitsuba14RadicalInverse9PrimeBaseENS_14default_deleteIS4_EEEixB8ne190000Em(ptr noundef nonnull align 8 dereferenceable(8) %0, i64 noundef %1) #1 comdat align 2 {
  %3 = alloca ptr, align 8
  %4 = alloca i64, align 8
  store ptr %0, ptr %3, align 8
  store i64 %1, ptr %4, align 8
  %5 = load ptr, ptr %3, align 8
  %6 = getelementptr inbounds %"class.std::__1::unique_ptr", ptr %5, i32 0, i32 0
  %7 = call noundef nonnull align 8 dereferenceable(8) ptr @_ZNKSt3__117__compressed_pairIPN7mitsuba14RadicalInverse9PrimeBaseENS_14default_deleteIA_S3_EEE5firstB8ne190000Ev(ptr noundef nonnull align 8 dereferenceable(8) %6) #16
  %8 = load ptr, ptr %7, align 8
  %9 = load i64, ptr %4, align 8
  %10 = getelementptr inbounds %"struct.mitsuba::RadicalInverse::PrimeBase", ptr %8, i64 %9
  ret ptr %10
}

; Function Attrs: mustprogress nounwind uwtable
define linkonce_odr hidden noundef nonnull align 8 dereferenceable(8) ptr @_ZNKSt3__110unique_ptrIA_PtNS_14default_deleteIS2_EEEixB8ne190000Em(ptr noundef nonnull align 8 dereferenceable(8) %0, i64 noundef %1) #1 comdat align 2 {
  %3 = alloca ptr, align 8
  %4 = alloca i64, align 8
  store ptr %0, ptr %3, align 8
  store i64 %1, ptr %4, align 8
  %5 = load ptr, ptr %3, align 8
  %6 = getelementptr inbounds %"class.std::__1::unique_ptr.8", ptr %5, i32 0, i32 0
  %7 = call noundef nonnull align 8 dereferenceable(8) ptr @_ZNKSt3__117__compressed_pairIPPtNS_14default_deleteIA_S1_EEE5firstB8ne190000Ev(ptr noundef nonnull align 8 dereferenceable(8) %6) #16
  %8 = load ptr, ptr %7, align 8
  %9 = load i64, ptr %4, align 8
  %10 = getelementptr inbounds ptr, ptr %8, i64 %9
  ret ptr %10
}

; Function Attrs: mustprogress uwtable
define void @_ZN7mitsuba14RadicalInverse18invert_permutationEj(ptr noundef nonnull align 8 dereferenceable(68) %0, i32 noundef %1) #0 align 2 {
  %3 = alloca ptr, align 8
  %4 = alloca i32, align 4
  %5 = alloca ptr, align 8
  %6 = alloca ptr, align 8
  %7 = alloca i64, align 8
  store ptr %0, ptr %3, align 8
  store i32 %1, ptr %4, align 4
  %8 = load ptr, ptr %3, align 8
  %9 = getelementptr inbounds %"class.mitsuba::RadicalInverse", ptr %8, i32 0, i32 5
  %10 = load i32, ptr %4, align 4
  %11 = zext i32 %10 to i64
  %12 = call noundef nonnull align 8 dereferenceable(8) ptr @_ZNKSt3__110unique_ptrIA_PtNS_14default_deleteIS2_EEEixB8ne190000Em(ptr noundef nonnull align 8 dereferenceable(8) %9, i64 noundef %11)
  %13 = load ptr, ptr %12, align 8
  store ptr %13, ptr %5, align 8
  %14 = getelementptr inbounds %"class.mitsuba::RadicalInverse", ptr %8, i32 0, i32 7
  %15 = load i32, ptr %4, align 4
  %16 = zext i32 %15 to i64
  %17 = call noundef nonnull align 8 dereferenceable(8) ptr @_ZNKSt3__110unique_ptrIA_PtNS_14default_deleteIS2_EEEixB8ne190000Em(ptr noundef nonnull align 8 dereferenceable(8) %14, i64 noundef %16)
  %18 = load ptr, ptr %17, align 8
  store ptr %18, ptr %6, align 8
  store i64 0, ptr %7, align 8
  br label %19

19:                                               ; preds = %39, %2
  %20 = load i64, ptr %7, align 8
  %21 = getelementptr inbounds %"class.mitsuba::RadicalInverse", ptr %8, i32 0, i32 3
  %22 = load i32, ptr %4, align 4
  %23 = zext i32 %22 to i64
  %24 = call noundef nonnull align 1 dereferenceable(23) ptr @_ZNKSt3__110unique_ptrIA_N7mitsuba14RadicalInverse9PrimeBaseENS_14default_deleteIS4_EEEixB8ne190000Em(ptr noundef nonnull align 8 dereferenceable(8) %21, i64 noundef %23)
  %25 = getelementptr inbounds %"struct.mitsuba::RadicalInverse::PrimeBase", ptr %24, i32 0, i32 1
  %26 = load i16, ptr %25, align 1
  %27 = zext i16 %26 to i64
  %28 = icmp ult i64 %20, %27
  br i1 %28, label %29, label %42

29:                                               ; preds = %19
  %30 = load i64, ptr %7, align 8
  %31 = trunc i64 %30 to i16
  %32 = load ptr, ptr %6, align 8
  %33 = load ptr, ptr %5, align 8
  %34 = load i64, ptr %7, align 8
  %35 = getelementptr inbounds i16, ptr %33, i64 %34
  %36 = load i16, ptr %35, align 2
  %37 = zext i16 %36 to i64
  %38 = getelementptr inbounds i16, ptr %32, i64 %37
  store i16 %31, ptr %38, align 2
  br label %39

39:                                               ; preds = %29
  %40 = load i64, ptr %7, align 8
  %41 = add i64 %40, 1
  store i64 %41, ptr %7, align 8
  br label %19, !llvm.loop !18

42:                                               ; preds = %19
  ret void
}