; Function Attrs: mustprogress nofree norecurse nosync nounwind memory(readwrite, inaccessiblemem: none) uwtable
define void @_ZN7mitsuba14RadicalInverse18invert_permutationEj(ptr nocapture noundef nonnull readonly align 8 dereferenceable(68) %0, i32 noundef %1) local_unnamed_addr #6 align 2 {
  %3 = getelementptr inbounds i8, ptr %0, i64 40
  %4 = zext i32 %1 to i64
  %5 = load ptr, ptr %3, align 8
  %6 = getelementptr inbounds ptr, ptr %5, i64 %4
  %7 = load ptr, ptr %6, align 8
  %8 = getelementptr inbounds i8, ptr %0, i64 56
  %9 = load ptr, ptr %8, align 8
  %10 = getelementptr inbounds ptr, ptr %9, i64 %4
  %11 = load ptr, ptr %10, align 8
  %12 = getelementptr inbounds i8, ptr %0, i64 24
  %13 = load ptr, ptr %12, align 8
  %14 = getelementptr inbounds %"struct.mitsuba::RadicalInverse::PrimeBase", ptr %13, i64 %4, i32 1
  %15 = load i16, ptr %14, align 1
  %.not = icmp eq i16 %15, 0
  br i1 %.not, label %._crit_edge, label %.lr.ph

.lr.ph:                                           ; preds = %2, %.lr.ph
  %.09 = phi i64 [ %21, %.lr.ph ], [ 0, %2 ]
  %16 = trunc i64 %.09 to i16
  %17 = getelementptr inbounds i16, ptr %7, i64 %.09
  %18 = load i16, ptr %17, align 2
  %19 = zext i16 %18 to i64
  %20 = getelementptr inbounds i16, ptr %11, i64 %19
  store i16 %16, ptr %20, align 2
  %21 = add nuw nsw i64 %.09, 1
  %22 = load ptr, ptr %12, align 8
  %23 = getelementptr inbounds %"struct.mitsuba::RadicalInverse::PrimeBase", ptr %22, i64 %4, i32 1
  %24 = load i16, ptr %23, align 1
  %25 = zext i16 %24 to i64
  %26 = icmp ult i64 %21, %25
  br i1 %26, label %.lr.ph, label %._crit_edge, !llvm.loop !17

._crit_edge:                                      ; preds = %.lr.ph, %2
  ret void
}